; Function Attrs: mustprogress uwtable
define void @_ZN3nix22FilteringInputAccessor11checkAccessERKNS_9CanonPathE(ptr noundef nonnull align 8 dereferenceable(144) %0, ptr noundef nonnull align 8 dereferenceable(32) %1) local_unnamed_addr #4 align 2 personality ptr @__gxx_personality_v0 {
  %3 = alloca %"class.std::__cxx11::basic_string", align 8
  %4 = alloca %"class.std::allocator", align 1
  %5 = alloca %"class.std::__cxx11::basic_string", align 8
  %6 = load ptr, ptr %0, align 8
  %7 = getelementptr inbounds i8, ptr %6, i64 72
  %8 = load ptr, ptr %7, align 8
  %9 = tail call noundef zeroext i1 %8(ptr noundef nonnull align 8 dereferenceable(144) %0, ptr noundef nonnull align 8 dereferenceable(32) %1)
  br i1 %9, label %35, label %10

10:                                               ; preds = %2
  %11 = tail call ptr @__cxa_allocate_exception(i64 376) #21
  %12 = getelementptr inbounds i8, ptr %0, i64 128
  %13 = load ptr, ptr %12, align 8
  %.not.i.i.not = icmp eq ptr %13, null
  br i1 %.not.i.i.not, label %18, label %14

14:                                               ; preds = %10
  %15 = getelementptr inbounds i8, ptr %0, i64 112
  %16 = getelementptr inbounds i8, ptr %0, i64 136
  %17 = load ptr, ptr %16, align 8, !noalias !4
  invoke void %17(ptr dead_on_unwind writable sret(%"class.nix::RestrictedPathError") align 8 %11, ptr noundef nonnull align 8 dereferenceable(16) %15, ptr noundef nonnull align 8 dereferenceable(32) %1)
          to label %_ZNKSt8functionIFN3nix19RestrictedPathErrorERKNS0_9CanonPathEEEclES4_.exit unwind label %.thread47

18:                                               ; preds = %10
  call void @_ZNSaIcEC1Ev(ptr noundef nonnull align 1 dereferenceable(1) %4) #21
  invoke void @_ZNSt7__cxx1112basic_stringIcSt11char_traitsIcESaIcEEC2IS3_EEPKcRKS3_(ptr noundef nonnull align 8 dereferenceable(32) %3, ptr noundef nonnull @.str, ptr noundef nonnull align 1 dereferenceable(1) %4)
          to label %19 unwind label %.thread55

19:                                               ; preds = %18
  %20 = load ptr, ptr %0, align 8
  %21 = getelementptr inbounds i8, ptr %20, i64 64
  %22 = load ptr, ptr %21, align 8
  invoke void %22(ptr dead_on_unwind nonnull writable sret(%"class.std::__cxx11::basic_string") align 8 %5, ptr noundef nonnull align 8 dereferenceable(144) %0, ptr noundef nonnull align 8 dereferenceable(32) %1)
          to label %23 unwind label %27

23:                                               ; preds = %19
  invoke void @_ZN3nix19RestrictedPathErrorCI2NS_9BaseErrorEIJNSt7__cxx1112basic_stringIcSt11char_traitsIcESaIcEEEEEERKS6_DpRKT_(ptr noundef nonnull align 8 dereferenceable(376) %11, ptr noundef nonnull align 8 dereferenceable(32) %3, ptr noundef nonnull align 8 dereferenceable(32) %5)
          to label %_ZNKSt8functionIFN3nix19RestrictedPathErrorERKNS0_9CanonPathEEEclES4_.exit unwind label %.thread

.thread:                                          ; preds = %23
  %24 = landingpad { ptr, i32 }
          cleanup
  br label %31

_ZNKSt8functionIFN3nix19RestrictedPathErrorERKNS0_9CanonPathEEEclES4_.exit: ; preds = %14, %23
  invoke void @__cxa_throw(ptr %11, ptr nonnull @_ZTIN3nix19RestrictedPathErrorE, ptr nonnull @_ZN3nix19RestrictedPathErrorD2Ev) #23
          to label %36 unwind label %29

.thread47:                                        ; preds = %14
  %25 = landingpad { ptr, i32 }
          cleanup
  br label %34

.thread55:                                        ; preds = %18
  %26 = landingpad { ptr, i32 }
          cleanup
  call void @_ZNSaIcED1Ev(ptr noundef nonnull align 1 dereferenceable(1) %4) #21
  br label %34

27:                                               ; preds = %19
  %28 = landingpad { ptr, i32 }
          cleanup
  br label %33

29:                                               ; preds = %_ZNKSt8functionIFN3nix19RestrictedPathErrorERKNS0_9CanonPathEEEclES4_.exit
  %30 = landingpad { ptr, i32 }
          cleanup
  br i1 %.not.i.i.not, label %31, label %.thread52

31:                                               ; preds = %.thread, %29
  %32 = phi { ptr, i32 } [ %24, %.thread ], [ %30, %29 ]
  %.032 = phi i1 [ true, %.thread ], [ false, %29 ]
  call void @_ZNSt7__cxx1112basic_stringIcSt11char_traitsIcESaIcEED2Ev(ptr noundef nonnull align 8 dereferenceable(32) %5) #21
  br label %33

33:                                               ; preds = %27, %31
  %.pn.ph = phi { ptr, i32 } [ %28, %27 ], [ %32, %31 ]
  %.1.ph = phi i1 [ true, %27 ], [ %.032, %31 ]
  call void @_ZNSt7__cxx1112basic_stringIcSt11char_traitsIcESaIcEED2Ev(ptr noundef nonnull align 8 dereferenceable(32) %3) #21
  call void @_ZNSaIcED1Ev(ptr noundef nonnull align 1 dereferenceable(1) %4) #21
  br i1 %.1.ph, label %34, label %.thread52

34:                                               ; preds = %.thread55, %.thread47, %33
  %.pn.pn.pn51 = phi { ptr, i32 } [ %25, %.thread47 ], [ %.pn.ph, %33 ], [ %26, %.thread55 ]
  call void @__cxa_free_exception(ptr %11) #21
  br label %.thread52

35:                                               ; preds = %2
  ret void

.thread52:                                        ; preds = %29, %33, %34
  %.pn.pn.pn50 = phi { ptr, i32 } [ %.pn.ph, %33 ], [ %.pn.pn.pn51, %34 ], [ %30, %29 ]
  resume { ptr, i32 } %.pn.pn.pn50

36:                                               ; preds = %_ZNKSt8functionIFN3nix19RestrictedPathErrorERKNS0_9CanonPathEEEclES4_.exit
  unreachable
}